; Function Attrs: mustprogress nofree norecurse nosync nounwind willreturn memory(read, argmem: write, inaccessiblemem: none) uwtable
define void @_ZN5arrow7compute19PartitionNthOptionsC2ElNS0_13NullPlacementE(ptr noundef nonnull writeonly align 8 captures(none) dereferenceable(28) initializes((0, 28)) %0, i64 noundef %1, i32 noundef %2) unnamed_addr #2 align 2 {
  %4 = load ptr, ptr @_ZN5arrow7compute8internal12_GLOBAL__N_124kPartitionNthOptionsTypeE, align 8, !tbaa !32
  %5 = getelementptr inbounds nuw i8, ptr %0, i64 8
  store ptr %4, ptr %5, align 8, !tbaa !35
  store ptr getelementptr inbounds nuw inrange(-16, 16) (i8, ptr @_ZTVN5arrow7compute19PartitionNthOptionsE, i64 16), ptr %0, align 8, !tbaa !37
  %6 = getelementptr inbounds nuw i8, ptr %0, i64 16
  store i64 %1, ptr %6, align 8, !tbaa !73
  %7 = getelementptr inbounds nuw i8, ptr %0, i64 24
  store i32 %2, ptr %7, align 8, !tbaa !75
  ret void
}